target datalayout = "e-m:e-p270:32:32-p271:32:32-p272:64:64-i64:64-i128:128-f80:128-n8:16:32:64-S128"
target triple = "x86_64-pc-linux-gnu"

%"class.cv::Mat" = type { i32, i32, i32, i32, ptr, ptr, ptr, ptr, ptr, ptr, %"struct.cv::MatSize", %"struct.cv::MatStep" }
%"struct.cv::MatSize" = type { ptr }
%"struct.cv::MatStep" = type { ptr, [2 x i64] }

; Function Attrs: mustprogress uwtable
define hidden void @_ZN2cv3ccm5Color7channelENS_3MatEi(ptr dead_on_unwind noalias writable sret(%"class.cv::Mat") align 8 %0, ptr noundef nonnull align 8 dereferenceable(352) %1, ptr noundef %2, i32 noundef %3) #0 align 2 personality ptr @__gxx_personality_v0 {
  %5 = alloca ptr, align 8
  %6 = alloca ptr, align 8
  %7 = alloca ptr, align 8
  %8 = alloca i32, align 4
  %9 = alloca [3 x %"class.cv::Mat"], align 16
  %10 = alloca ptr, align 8
  %11 = alloca i32, align 4
  store ptr %0, ptr %5, align 8
  store ptr %1, ptr %6, align 8
  store ptr %2, ptr %7, align 8
  store i32 %3, ptr %8, align 4
  %12 = getelementptr inbounds [3 x %"class.cv::Mat"], ptr %9, i32 0, i32 0
  %13 = getelementptr inbounds %"class.cv::Mat", ptr %12, i64 3
  br label %14

14:                                               ; preds = %14, %4
  %15 = phi ptr [ %12, %4 ], [ %16, %14 ]
  call void @_ZN2cv3MatC1Ev(ptr noundef nonnull align 8 dereferenceable(96) %15) #12
  %16 = getelementptr inbounds %"class.cv::Mat", ptr %15, i64 1
  %17 = icmp eq ptr %16, %13
  br i1 %17, label %18, label %14

18:                                               ; preds = %14
  %19 = getelementptr inbounds [3 x %"class.cv::Mat"], ptr %9, i64 0, i64 0
  invoke void @_ZN2cv5splitERKNS_3MatEPS0_(ptr noundef nonnull align 8 dereferenceable(96) %2, ptr noundef %19)
          to label %20 unwind label %27

20:                                               ; preds = %18
  %21 = load i32, ptr %8, align 4
  %22 = sext i32 %21 to i64
  %23 = getelementptr inbounds [3 x %"class.cv::Mat"], ptr %9, i64 0, i64 %22
  invoke void @_ZN2cv3MatC1ERKS0_(ptr noundef nonnull align 8 dereferenceable(96) %0, ptr noundef nonnull align 8 dereferenceable(96) %23)
          to label %24 unwind label %27

24:                                               ; preds = %20
  %25 = getelementptr inbounds [3 x %"class.cv::Mat"], ptr %9, i32 0, i32 0
  %26 = getelementptr inbounds %"class.cv::Mat", ptr %25, i64 3
  br label %33

27:                                               ; preds = %20, %18
  %28 = landingpad { ptr, i32 }
          cleanup
  %29 = extractvalue { ptr, i32 } %28, 0
  store ptr %29, ptr %10, align 8
  %30 = extractvalue { ptr, i32 } %28, 1
  store i32 %30, ptr %11, align 4
  %31 = getelementptr inbounds [3 x %"class.cv::Mat"], ptr %9, i32 0, i32 0
  %32 = getelementptr inbounds %"class.cv::Mat", ptr %31, i64 3
  br label %38

33:                                               ; preds = %33, %24
  %34 = phi ptr [ %26, %24 ], [ %35, %33 ]
  %35 = getelementptr inbounds %"class.cv::Mat", ptr %34, i64 -1
  call void @_ZN2cv3MatD1Ev(ptr noundef nonnull align 8 dereferenceable(96) %35) #12
  %36 = icmp eq ptr %35, %25
  br i1 %36, label %37, label %33

37:                                               ; preds = %33
  ret void

38:                                               ; preds = %38, %27
  %39 = phi ptr [ %32, %27 ], [ %40, %38 ]
  %40 = getelementptr inbounds %"class.cv::Mat", ptr %39, i64 -1
  call void @_ZN2cv3MatD1Ev(ptr noundef nonnull align 8 dereferenceable(96) %40) #12
  %41 = icmp eq ptr %40, %31
  br i1 %41, label %42, label %38

42:                                               ; preds = %38
  br label %43

43:                                               ; preds = %42
  %44 = load ptr, ptr %10, align 8
  %45 = load i32, ptr %11, align 4
  %46 = insertvalue { ptr, i32 } poison, ptr %44, 0
  %47 = insertvalue { ptr, i32 } %46, i32 %45, 1
  resume { ptr, i32 } %47
}