; Function Attrs: mustprogress uwtable
define hidden void @_ZN2cv3ccm5Color7channelENS_3MatEi(ptr dead_on_unwind noalias writable sret(%"class.cv::Mat") align 8 %0, ptr nocapture noundef nonnull readnone align 8 dereferenceable(352) %1, ptr noundef %2, i32 noundef %3) local_unnamed_addr #0 align 2 personality ptr @__gxx_personality_v0 {
  %5 = alloca [3 x %"class.cv::Mat"], align 16
  br label %6

6:                                                ; preds = %6, %4
  %.idx = phi i64 [ 0, %4 ], [ %.add, %6 ]
  %.ptr = getelementptr inbounds i8, ptr %5, i64 %.idx
  call void @_ZN2cv3MatC1Ev(ptr noundef nonnull align 8 dereferenceable(96) %.ptr) #14
  %.add = add nuw nsw i64 %.idx, 96
  %7 = icmp eq i64 %.add, 288
  br i1 %7, label %8, label %6

8:                                                ; preds = %6
  %9 = getelementptr inbounds i8, ptr %5, i64 288
  invoke void @_ZN2cv5splitERKNS_3MatEPS0_(ptr noundef nonnull align 8 dereferenceable(96) %2, ptr noundef nonnull %5)
          to label %10 unwind label %13

10:                                               ; preds = %8
  %11 = sext i32 %3 to i64
  %12 = getelementptr inbounds [3 x %"class.cv::Mat"], ptr %5, i64 0, i64 %11
  invoke void @_ZN2cv3MatC1ERKS0_(ptr noundef nonnull align 8 dereferenceable(96) %0, ptr noundef nonnull align 8 dereferenceable(96) %12)
          to label %.preheader unwind label %13

13:                                               ; preds = %10, %8
  %14 = landingpad { ptr, i32 }
          cleanup
  br label %19

.preheader:                                       ; preds = %10, %.preheader
  %15 = phi ptr [ %16, %.preheader ], [ %9, %10 ]
  %16 = getelementptr inbounds i8, ptr %15, i64 -96
  call void @_ZN2cv3MatD1Ev(ptr noundef nonnull align 8 dereferenceable(96) %16) #14
  %17 = icmp eq ptr %16, %5
  br i1 %17, label %18, label %.preheader

18:                                               ; preds = %.preheader
  ret void

19:                                               ; preds = %19, %13
  %20 = phi ptr [ %9, %13 ], [ %21, %19 ]
  %21 = getelementptr inbounds i8, ptr %20, i64 -96
  call void @_ZN2cv3MatD1Ev(ptr noundef nonnull align 8 dereferenceable(96) %21) #14
  %22 = icmp eq ptr %21, %5
  br i1 %22, label %23, label %19

23:                                               ; preds = %19
  resume { ptr, i32 } %14
}